; ModuleID = '38/665.c'
source_filename = "38/665.c"
target datalayout = "e-m:e-p270:32:32-p271:32:32-p272:64:64-i64:64-f80:128-n8:16:32:64-S128"
target triple = "x86_64-pc-linux-gnu"

@.str = private unnamed_addr constant [3 x i8] c"%d\00", align 1
@.str.1 = private unnamed_addr constant [4 x i8] c"%lf\00", align 1
@.str.2 = private unnamed_addr constant [7 x i8] c"%.5lf\0A\00", align 1

; Function Attrs: noinline nounwind uwtable
define dso_local i32 @main() #0 {
  %1 = alloca i32, align 4
  %2 = alloca i32, align 4
  %3 = alloca i32, align 4
  %4 = alloca i32, align 4
  %5 = alloca i32, align 4
  %6 = alloca [10000 x double], align 16
  %7 = alloca double, align 8
  %8 = alloca double, align 8
  %9 = alloca double, align 8
  store i32 0, i32* %1, align 4
  %10 = call i32 (i8*, ...) @__isoc99_scanf(i8* getelementptr inbounds ([3 x i8], [3 x i8]* @.str, i64 0, i64 0), i32* %2)
  store i32 0, i32* %3, align 4
  br label %11

11:                                               ; preds = %72, %0
  %12 = load i32, i32* %3, align 4
  %13 = load i32, i32* %2, align 4
  %14 = icmp slt i32 %12, %13
  br i1 %14, label %15, label %75

15:                                               ; preds = %11
  store double 0.000000e+00, double* %7, align 8
  store double 0.000000e+00, double* %8, align 8
  %16 = call i32 (i8*, ...) @__isoc99_scanf(i8* getelementptr inbounds ([3 x i8], [3 x i8]* @.str, i64 0, i64 0), i32* %4)
  store i32 0, i32* %5, align 4
  br label %17

17:                                               ; preds = %32, %15
  %18 = load i32, i32* %5, align 4
  %19 = load i32, i32* %4, align 4
  %20 = icmp slt i32 %18, %19
  br i1 %20, label %21, label %35

21:                                               ; preds = %17
  %22 = load i32, i32* %5, align 4
  %23 = sext i32 %22 to i64
  %24 = getelementptr inbounds [10000 x double], [10000 x double]* %6, i64 0, i64 %23
  %25 = call i32 (i8*, ...) @__isoc99_scanf(i8* getelementptr inbounds ([4 x i8], [4 x i8]* @.str.1, i64 0, i64 0), double* %24)
  %26 = load i32, i32* %5, align 4
  %27 = sext i32 %26 to i64
  %28 = getelementptr inbounds [10000 x double], [10000 x double]* %6, i64 0, i64 %27
  %29 = load double, double* %28, align 8
  %30 = load double, double* %7, align 8
  %31 = fadd double %30, %29
  store double %31, double* %7, align 8
  br label %32

32:                                               ; preds = %21
  %33 = load i32, i32* %5, align 4
  %34 = add nsw i32 %33, 1
  store i32 %34, i32* %5, align 4
  br label %17

35:                                               ; preds = %17
  %36 = load double, double* %7, align 8
  %37 = load i32, i32* %4, align 4
  %38 = sitofp i32 %37 to double
  %39 = fdiv double %36, %38
  store double %39, double* %7, align 8
  store i32 0, i32* %5, align 4
  br label %40

40:                                               ; preds = %60, %35
  %41 = load i32, i32* %5, align 4
  %42 = load i32, i32* %4, align 4
  %43 = icmp slt i32 %41, %42
  br i1 %43, label %44, label %63

44:                                               ; preds = %40
  %45 = load double, double* %8, align 8
  %46 = load i32, i32* %5, align 4
  %47 = sext i32 %46 to i64
  %48 = getelementptr inbounds [10000 x double], [10000 x double]* %6, i64 0, i64 %47
  %49 = load double, double* %48, align 8
  %50 = load double, double* %7, align 8
  %51 = fsub double %49, %50
  %52 = load i32, i32* %5, align 4
  %53 = sext i32 %52 to i64
  %54 = getelementptr inbounds [10000 x double], [10000 x double]* %6, i64 0, i64 %53
  %55 = load double, double* %54, align 8
  %56 = load double, double* %7, align 8
  %57 = fsub double %55, %56
  %58 = fmul double %51, %57
  %59 = fadd double %45, %58
  store double %59, double* %8, align 8
  br label %60

60:                                               ; preds = %44
  %61 = load i32, i32* %5, align 4
  %62 = add nsw i32 %61, 1
  store i32 %62, i32* %5, align 4
  br label %40

63:                                               ; preds = %40
  %64 = load double, double* %8, align 8
  %65 = load i32, i32* %4, align 4
  %66 = sitofp i32 %65 to double
  %67 = fdiv double %64, %66
  store double %67, double* %8, align 8
  %68 = load double, double* %8, align 8
  %69 = call double @sqrt(double %68) #3
  store double %69, double* %9, align 8
  %70 = load double, double* %9, align 8
  %71 = call i32 (i8*, ...) @printf(i8* getelementptr inbounds ([7 x i8], [7 x i8]* @.str.2, i64 0, i64 0), double %70)
  br label %72

72:                                               ; preds = %63
  %73 = load i32, i32* %3, align 4
  %74 = add nsw i32 %73, 1
  store i32 %74, i32* %3, align 4
  br label %11

75:                                               ; preds = %11
  ret i32 0
}

declare dso_local i32 @__isoc99_scanf(i8*, ...) #1

; Function Attrs: nounwind
declare dso_local double @sqrt(double) #2

declare dso_local i32 @printf(i8*, ...) #1


!llvm.module.flags = !{!0}
!llvm.ident = !{!1}

!0 = !{i32 1, !"wchar_size", i32 4}
!1 = !{!"clang version 10.0.0-4ubuntu1 "}
